target datalayout = "e-m:e-p270:32:32-p271:32:32-p272:64:64-i64:64-i128:128-f80:128-n8:16:32:64-S128"
target triple = "x86_64-pc-linux-gnu"

%struct.Abc_ZddMan_ = type { i32, i32, i32, i32, i32, i32, ptr, ptr, ptr, ptr, i32, i32, i64, ptr, ptr, ptr }
%struct.Abc_ZddObj_ = type { i32, i32, i32 }
%struct.Abc_ZddEnt_ = type { i32, i32, i32, i32 }

; Function Attrs: inlinehint nounwind uwtable
define internal i32 @Abc_ZddHash(i32 noundef %0, i32 noundef %1, i32 noundef %2) #2 {
  %4 = alloca i32, align 4
  %5 = alloca i32, align 4
  %6 = alloca i32, align 4
  store i32 %0, ptr %4, align 4, !tbaa !10
  store i32 %1, ptr %5, align 4, !tbaa !10
  store i32 %2, ptr %6, align 4, !tbaa !10
  %7 = load i32, ptr %4, align 4, !tbaa !10
  %8 = mul nsw i32 12582917, %7
  %9 = load i32, ptr %5, align 4, !tbaa !10
  %10 = mul nsw i32 4256249, %9
  %11 = add nsw i32 %8, %10
  %12 = load i32, ptr %6, align 4, !tbaa !10
  %13 = mul nsw i32 741457, %12
  %14 = add nsw i32 %11, %13
  ret i32 %14
}

; Function Attrs: inlinehint nounwind uwtable
define internal i32 @Abc_ZddCacheInsert(ptr noundef %0, i32 noundef %1, i32 noundef %2, i32 noundef %3, i32 noundef %4) #2 {
  %6 = alloca ptr, align 8
  %7 = alloca i32, align 4
  %8 = alloca i32, align 4
  %9 = alloca i32, align 4
  %10 = alloca i32, align 4
  %11 = alloca ptr, align 8
  store ptr %0, ptr %6, align 8, !tbaa !3
  store i32 %1, ptr %7, align 4, !tbaa !10
  store i32 %2, ptr %8, align 4, !tbaa !10
  store i32 %3, ptr %9, align 4, !tbaa !10
  store i32 %4, ptr %10, align 4, !tbaa !10
  call void @llvm.lifetime.start.p0(i64 8, ptr %11) #12
  %12 = load ptr, ptr %6, align 8, !tbaa !3
  %13 = getelementptr inbounds nuw %struct.Abc_ZddMan_, ptr %12, i32 0, i32 8
  %14 = load ptr, ptr %13, align 8, !tbaa !34
  %15 = load i32, ptr %7, align 4, !tbaa !10
  %16 = load i32, ptr %8, align 4, !tbaa !10
  %17 = load i32, ptr %9, align 4, !tbaa !10
  %18 = call i32 @Abc_ZddHash(i32 noundef %15, i32 noundef %16, i32 noundef %17)
  %19 = load ptr, ptr %6, align 8, !tbaa !3
  %20 = getelementptr inbounds nuw %struct.Abc_ZddMan_, ptr %19, i32 0, i32 5
  %21 = load i32, ptr %20, align 4, !tbaa !33
  %22 = and i32 %18, %21
  %23 = zext i32 %22 to i64
  %24 = getelementptr inbounds nuw %struct.Abc_ZddEnt_, ptr %14, i64 %23
  store ptr %24, ptr %11, align 8, !tbaa !47
  %25 = load i32, ptr %7, align 4, !tbaa !10
  %26 = load ptr, ptr %11, align 8, !tbaa !47
  %27 = getelementptr inbounds nuw %struct.Abc_ZddEnt_, ptr %26, i32 0, i32 0
  store i32 %25, ptr %27, align 4, !tbaa !48
  %28 = load i32, ptr %8, align 4, !tbaa !10
  %29 = load ptr, ptr %11, align 8, !tbaa !47
  %30 = getelementptr inbounds nuw %struct.Abc_ZddEnt_, ptr %29, i32 0, i32 1
  store i32 %28, ptr %30, align 4, !tbaa !50
  %31 = load i32, ptr %9, align 4, !tbaa !10
  %32 = load ptr, ptr %11, align 8, !tbaa !47
  %33 = getelementptr inbounds nuw %struct.Abc_ZddEnt_, ptr %32, i32 0, i32 2
  store i32 %31, ptr %33, align 4, !tbaa !51
  %34 = load i32, ptr %10, align 4, !tbaa !10
  %35 = load ptr, ptr %11, align 8, !tbaa !47
  %36 = getelementptr inbounds nuw %struct.Abc_ZddEnt_, ptr %35, i32 0, i32 3
  store i32 %34, ptr %36, align 4, !tbaa !52
  %37 = load ptr, ptr %6, align 8, !tbaa !3
  %38 = getelementptr inbounds nuw %struct.Abc_ZddMan_, ptr %37, i32 0, i32 11
  %39 = load i32, ptr %38, align 4, !tbaa !45
  %40 = add nsw i32 %39, 1
  store i32 %40, ptr %38, align 4, !tbaa !45
  %41 = load i32, ptr %10, align 4, !tbaa !10
  call void @llvm.lifetime.end.p0(i64 8, ptr %11) #12
  ret i32 %41
}

; Function Attrs: inlinehint nounwind uwtable
define internal ptr @Abc_ZddNode(ptr noundef %0, i32 noundef %1) #2 {
  %3 = alloca ptr, align 8
  %4 = alloca i32, align 4
  store ptr %0, ptr %3, align 8, !tbaa !3
  store i32 %1, ptr %4, align 4, !tbaa !10
  %5 = load ptr, ptr %3, align 8, !tbaa !3
  %6 = getelementptr inbounds nuw %struct.Abc_ZddMan_, ptr %5, i32 0, i32 9
  %7 = load ptr, ptr %6, align 8, !tbaa !22
  %8 = load i32, ptr %4, align 4, !tbaa !10
  %9 = sext i32 %8 to i64
  %10 = getelementptr inbounds %struct.Abc_ZddObj_, ptr %7, i64 %9
  ret ptr %10
}

; Function Attrs: inlinehint nounwind uwtable
define internal i32 @Abc_ZddCacheLookup(ptr noundef %0, i32 noundef %1, i32 noundef %2, i32 noundef %3) #2 {
  %5 = alloca ptr, align 8
  %6 = alloca i32, align 4
  %7 = alloca i32, align 4
  %8 = alloca i32, align 4
  %9 = alloca ptr, align 8
  store ptr %0, ptr %5, align 8, !tbaa !3
  store i32 %1, ptr %6, align 4, !tbaa !10
  store i32 %2, ptr %7, align 4, !tbaa !10
  store i32 %3, ptr %8, align 4, !tbaa !10
  call void @llvm.lifetime.start.p0(i64 8, ptr %9) #12
  %10 = load ptr, ptr %5, align 8, !tbaa !3
  %11 = getelementptr inbounds nuw %struct.Abc_ZddMan_, ptr %10, i32 0, i32 8
  %12 = load ptr, ptr %11, align 8, !tbaa !34
  %13 = load i32, ptr %6, align 4, !tbaa !10
  %14 = load i32, ptr %7, align 4, !tbaa !10
  %15 = load i32, ptr %8, align 4, !tbaa !10
  %16 = call i32 @Abc_ZddHash(i32 noundef %13, i32 noundef %14, i32 noundef %15)
  %17 = load ptr, ptr %5, align 8, !tbaa !3
  %18 = getelementptr inbounds nuw %struct.Abc_ZddMan_, ptr %17, i32 0, i32 5
  %19 = load i32, ptr %18, align 4, !tbaa !33
  %20 = and i32 %16, %19
  %21 = zext i32 %20 to i64
  %22 = getelementptr inbounds nuw %struct.Abc_ZddEnt_, ptr %12, i64 %21
  store ptr %22, ptr %9, align 8, !tbaa !47
  %23 = load ptr, ptr %5, align 8, !tbaa !3
  %24 = getelementptr inbounds nuw %struct.Abc_ZddMan_, ptr %23, i32 0, i32 10
  %25 = load i32, ptr %24, align 8, !tbaa !44
  %26 = add nsw i32 %25, 1
  store i32 %26, ptr %24, align 8, !tbaa !44
  %27 = load ptr, ptr %9, align 8, !tbaa !47
  %28 = getelementptr inbounds nuw %struct.Abc_ZddEnt_, ptr %27, i32 0, i32 0
  %29 = load i32, ptr %28, align 4, !tbaa !48
  %30 = load i32, ptr %6, align 4, !tbaa !10
  %31 = icmp eq i32 %29, %30
  br i1 %31, label %32, label %48

32:                                               ; preds = %4
  %33 = load ptr, ptr %9, align 8, !tbaa !47
  %34 = getelementptr inbounds nuw %struct.Abc_ZddEnt_, ptr %33, i32 0, i32 1
  %35 = load i32, ptr %34, align 4, !tbaa !50
  %36 = load i32, ptr %7, align 4, !tbaa !10
  %37 = icmp eq i32 %35, %36
  br i1 %37, label %38, label %48

38:                                               ; preds = %32
  %39 = load ptr, ptr %9, align 8, !tbaa !47
  %40 = getelementptr inbounds nuw %struct.Abc_ZddEnt_, ptr %39, i32 0, i32 2
  %41 = load i32, ptr %40, align 4, !tbaa !51
  %42 = load i32, ptr %8, align 4, !tbaa !10
  %43 = icmp eq i32 %41, %42
  br i1 %43, label %44, label %48

44:                                               ; preds = %38
  %45 = load ptr, ptr %9, align 8, !tbaa !47
  %46 = getelementptr inbounds nuw %struct.Abc_ZddEnt_, ptr %45, i32 0, i32 3
  %47 = load i32, ptr %46, align 4, !tbaa !52
  br label %49

48:                                               ; preds = %38, %32, %4
  br label %49

49:                                               ; preds = %48, %44
  %50 = phi i32 [ %47, %44 ], [ -1, %48 ]
  call void @llvm.lifetime.end.p0(i64 8, ptr %9) #12
  ret i32 %50
}

; Function Attrs: nounwind uwtable
define i32 @Abc_ZddCountPaths(ptr noundef %0, i32 noundef %1) #0 {
  %3 = alloca i32, align 4
  %4 = alloca ptr, align 8
  %5 = alloca i32, align 4
  %6 = alloca ptr, align 8
  %7 = alloca i32, align 4
  %8 = alloca i32, align 4
  store ptr %0, ptr %4, align 8, !tbaa !3
  store i32 %1, ptr %5, align 4, !tbaa !10
  call void @llvm.lifetime.start.p0(i64 8, ptr %6) #12
  call void @llvm.lifetime.start.p0(i64 4, ptr %7) #12
  %9 = load i32, ptr %5, align 4, !tbaa !10
  %10 = icmp slt i32 %9, 2
  br i1 %10, label %11, label %13

11:                                               ; preds = %2
  %12 = load i32, ptr %5, align 4, !tbaa !10
  store i32 %12, ptr %3, align 4
  store i32 1, ptr %8, align 4
  br label %39

13:                                               ; preds = %2
  %14 = load ptr, ptr %4, align 8, !tbaa !3
  %15 = load i32, ptr %5, align 4, !tbaa !10
  %16 = call i32 @Abc_ZddCacheLookup(ptr noundef %14, i32 noundef %15, i32 noundef 0, i32 noundef 13)
  store i32 %16, ptr %7, align 4, !tbaa !10
  %17 = icmp sge i32 %16, 0
  br i1 %17, label %18, label %20

18:                                               ; preds = %13
  %19 = load i32, ptr %7, align 4, !tbaa !10
  store i32 %19, ptr %3, align 4
  store i32 1, ptr %8, align 4
  br label %39

20:                                               ; preds = %13
  %21 = load ptr, ptr %4, align 8, !tbaa !3
  %22 = load i32, ptr %5, align 4, !tbaa !10
  %23 = call ptr @Abc_ZddNode(ptr noundef %21, i32 noundef %22)
  store ptr %23, ptr %6, align 8, !tbaa !46
  %24 = load ptr, ptr %4, align 8, !tbaa !3
  %25 = load ptr, ptr %6, align 8, !tbaa !46
  %26 = getelementptr inbounds nuw %struct.Abc_ZddObj_, ptr %25, i32 0, i32 2
  %27 = load i32, ptr %26, align 4, !tbaa !25
  %28 = call i32 @Abc_ZddCountPaths(ptr noundef %24, i32 noundef %27)
  %29 = load ptr, ptr %4, align 8, !tbaa !3
  %30 = load ptr, ptr %6, align 8, !tbaa !46
  %31 = getelementptr inbounds nuw %struct.Abc_ZddObj_, ptr %30, i32 0, i32 1
  %32 = load i32, ptr %31, align 4, !tbaa !23
  %33 = call i32 @Abc_ZddCountPaths(ptr noundef %29, i32 noundef %32)
  %34 = add nsw i32 %28, %33
  store i32 %34, ptr %7, align 4, !tbaa !10
  %35 = load ptr, ptr %4, align 8, !tbaa !3
  %36 = load i32, ptr %5, align 4, !tbaa !10
  %37 = load i32, ptr %7, align 4, !tbaa !10
  %38 = call i32 @Abc_ZddCacheInsert(ptr noundef %35, i32 noundef %36, i32 noundef 0, i32 noundef 13, i32 noundef %37)
  store i32 %38, ptr %3, align 4
  store i32 1, ptr %8, align 4
  br label %39

39:                                               ; preds = %20, %18, %11
  call void @llvm.lifetime.end.p0(i64 4, ptr %7) #12
  call void @llvm.lifetime.end.p0(i64 8, ptr %6) #12
  %40 = load i32, ptr %3, align 4
  ret i32 %40
}