; Function Attrs: nofree nosync nounwind memory(readwrite, inaccessiblemem: none) uwtable
define i32 @Abc_ZddCountPaths(ptr noundef %0, i32 noundef %1) local_unnamed_addr #10 {
  %3 = icmp slt i32 %1, 2
  br i1 %3, label %common.ret16, label %4

4:                                                ; preds = %2
  %5 = getelementptr inbounds nuw i8, ptr %0, i64 40
  %6 = load ptr, ptr %5, align 8, !tbaa !31
  %7 = mul nuw nsw i32 %1, 12582917
  %8 = add nuw nsw i32 %7, 9638941
  %9 = getelementptr inbounds nuw i8, ptr %0, i64 20
  %10 = load i32, ptr %9, align 4, !tbaa !30
  %11 = and i32 %10, %8
  %12 = zext nneg i32 %11 to i64
  %13 = getelementptr inbounds nuw %struct.Abc_ZddEnt_, ptr %6, i64 %12
  %14 = getelementptr inbounds nuw i8, ptr %0, i64 56
  %15 = load i32, ptr %14, align 8, !tbaa !40
  %16 = add nsw i32 %15, 1
  store i32 %16, ptr %14, align 8, !tbaa !40
  %17 = load i32, ptr %13, align 4, !tbaa !42
  %18 = icmp eq i32 %17, %1
  br i1 %18, label %19, label %Abc_ZddCacheLookup.exit.thread

19:                                               ; preds = %4
  %20 = getelementptr inbounds nuw i8, ptr %13, i64 4
  %21 = load i32, ptr %20, align 4, !tbaa !44
  %22 = icmp eq i32 %21, 0
  br i1 %22, label %23, label %Abc_ZddCacheLookup.exit.thread

23:                                               ; preds = %19
  %24 = getelementptr inbounds nuw i8, ptr %13, i64 8
  %25 = load i32, ptr %24, align 4, !tbaa !45
  %26 = icmp eq i32 %25, 13
  br i1 %26, label %Abc_ZddCacheLookup.exit, label %Abc_ZddCacheLookup.exit.thread

Abc_ZddCacheLookup.exit:                          ; preds = %23
  %27 = getelementptr inbounds nuw i8, ptr %13, i64 12
  %28 = load i32, ptr %27, align 4, !tbaa !46
  %29 = icmp sgt i32 %28, -1
  br i1 %29, label %common.ret16, label %Abc_ZddCacheLookup.exit.thread

common.ret16:                                     ; preds = %Abc_ZddCacheLookup.exit, %2, %Abc_ZddCacheLookup.exit.thread
  %common.ret16.op = phi i32 [ %39, %Abc_ZddCacheLookup.exit.thread ], [ %1, %2 ], [ %28, %Abc_ZddCacheLookup.exit ]
  ret i32 %common.ret16.op

Abc_ZddCacheLookup.exit.thread:                   ; preds = %4, %19, %23, %Abc_ZddCacheLookup.exit
  %30 = getelementptr i8, ptr %0, i64 48
  %.val = load ptr, ptr %30, align 8, !tbaa !18
  %31 = zext nneg i32 %1 to i64
  %32 = getelementptr inbounds nuw %struct.Abc_ZddObj_, ptr %.val, i64 %31
  %33 = getelementptr inbounds nuw i8, ptr %32, i64 8
  %34 = load i32, ptr %33, align 4, !tbaa !21
  %35 = tail call i32 @Abc_ZddCountPaths(ptr noundef nonnull %0, i32 noundef %34)
  %36 = getelementptr inbounds nuw i8, ptr %32, i64 4
  %37 = load i32, ptr %36, align 4, !tbaa !19
  %38 = tail call i32 @Abc_ZddCountPaths(ptr noundef nonnull %0, i32 noundef %37)
  %39 = add nsw i32 %38, %35
  %40 = load ptr, ptr %5, align 8, !tbaa !31
  %41 = load i32, ptr %9, align 4, !tbaa !30
  %42 = and i32 %41, %8
  %43 = zext nneg i32 %42 to i64
  %44 = getelementptr inbounds nuw %struct.Abc_ZddEnt_, ptr %40, i64 %43
  store i32 %1, ptr %44, align 4, !tbaa !42
  %45 = getelementptr inbounds nuw i8, ptr %44, i64 4
  store i32 0, ptr %45, align 4, !tbaa !44
  %46 = getelementptr inbounds nuw i8, ptr %44, i64 8
  store i32 13, ptr %46, align 4, !tbaa !45
  %47 = getelementptr inbounds nuw i8, ptr %44, i64 12
  store i32 %39, ptr %47, align 4, !tbaa !46
  %48 = getelementptr inbounds nuw i8, ptr %0, i64 60
  %49 = load i32, ptr %48, align 4, !tbaa !41
  %50 = add nsw i32 %49, 1
  store i32 %50, ptr %48, align 4, !tbaa !41
  br label %common.ret16
}